; ModuleID = '2/1326.c'
source_filename = "2/1326.c"
target datalayout = "e-m:e-p270:32:32-p271:32:32-p272:64:64-i64:64-f80:128-n8:16:32:64-S128"
target triple = "x86_64-pc-linux-gnu"

%struct.data = type { i32, [27 x i8] }

@.str = private unnamed_addr constant [3 x i8] c"%d\00", align 1
@.str.1 = private unnamed_addr constant [6 x i8] c"%d %s\00", align 1
@.str.2 = private unnamed_addr constant [7 x i8] c"%c\0A%d\0A\00", align 1
@.str.3 = private unnamed_addr constant [4 x i8] c"%d\0A\00", align 1

; Function Attrs: noinline nounwind uwtable
define dso_local i32 @main() #0 {
  %1 = alloca i32, align 4
  %2 = alloca i32, align 4
  %3 = alloca i32, align 4
  %4 = alloca i32, align 4
  %5 = alloca [26 x i32], align 16
  %6 = alloca i32, align 4
  %7 = alloca i32, align 4
  %8 = alloca i32, align 4
  %9 = alloca %struct.data*, align 8
  store i32 0, i32* %1, align 4
  store i32 0, i32* %6, align 4
  %10 = call i32 (i8*, ...) @__isoc99_scanf(i8* getelementptr inbounds ([3 x i8], [3 x i8]* @.str, i64 0, i64 0), i32* %2)
  %11 = load i32, i32* %2, align 4
  %12 = sext i32 %11 to i64
  %13 = mul i64 32, %12
  %14 = call noalias i8* @malloc(i64 %13) #4
  %15 = bitcast i8* %14 to %struct.data*
  store %struct.data* %15, %struct.data** %9, align 8
  store i32 0, i32* %4, align 4
  br label %16

16:                                               ; preds = %23, %0
  %17 = load i32, i32* %4, align 4
  %18 = icmp sle i32 %17, 25
  br i1 %18, label %19, label %26

19:                                               ; preds = %16
  %20 = load i32, i32* %4, align 4
  %21 = sext i32 %20 to i64
  %22 = getelementptr inbounds [26 x i32], [26 x i32]* %5, i64 0, i64 %21
  store i32 0, i32* %22, align 4
  br label %23

23:                                               ; preds = %19
  %24 = load i32, i32* %4, align 4
  %25 = add nsw i32 %24, 1
  store i32 %25, i32* %4, align 4
  br label %16

26:                                               ; preds = %16
  store i32 0, i32* %3, align 4
  br label %27

27:                                               ; preds = %78, %26
  %28 = load i32, i32* %3, align 4
  %29 = load i32, i32* %2, align 4
  %30 = sub nsw i32 %29, 1
  %31 = icmp sle i32 %28, %30
  br i1 %31, label %32, label %81

32:                                               ; preds = %27
  %33 = load %struct.data*, %struct.data** %9, align 8
  %34 = load i32, i32* %3, align 4
  %35 = sext i32 %34 to i64
  %36 = getelementptr inbounds %struct.data, %struct.data* %33, i64 %35
  %37 = getelementptr inbounds %struct.data, %struct.data* %36, i32 0, i32 0
  %38 = load %struct.data*, %struct.data** %9, align 8
  %39 = load i32, i32* %3, align 4
  %40 = sext i32 %39 to i64
  %41 = getelementptr inbounds %struct.data, %struct.data* %38, i64 %40
  %42 = getelementptr inbounds %struct.data, %struct.data* %41, i32 0, i32 1
  %43 = getelementptr inbounds [27 x i8], [27 x i8]* %42, i64 0, i64 0
  %44 = call i32 (i8*, ...) @__isoc99_scanf(i8* getelementptr inbounds ([6 x i8], [6 x i8]* @.str.1, i64 0, i64 0), i32* %37, i8* %43)
  %45 = load %struct.data*, %struct.data** %9, align 8
  %46 = load i32, i32* %3, align 4
  %47 = sext i32 %46 to i64
  %48 = getelementptr inbounds %struct.data, %struct.data* %45, i64 %47
  %49 = getelementptr inbounds %struct.data, %struct.data* %48, i32 0, i32 1
  %50 = getelementptr inbounds [27 x i8], [27 x i8]* %49, i64 0, i64 0
  %51 = call i64 @strlen(i8* %50) #5
  %52 = trunc i64 %51 to i32
  store i32 %52, i32* %8, align 4
  store i32 0, i32* %4, align 4
  br label %53

53:                                               ; preds = %74, %32
  %54 = load i32, i32* %4, align 4
  %55 = load i32, i32* %8, align 4
  %56 = sub nsw i32 %55, 1
  %57 = icmp sle i32 %54, %56
  br i1 %57, label %58, label %77

58:                                               ; preds = %53
  %59 = load %struct.data*, %struct.data** %9, align 8
  %60 = load i32, i32* %3, align 4
  %61 = sext i32 %60 to i64
  %62 = getelementptr inbounds %struct.data, %struct.data* %59, i64 %61
  %63 = getelementptr inbounds %struct.data, %struct.data* %62, i32 0, i32 1
  %64 = load i32, i32* %4, align 4
  %65 = sext i32 %64 to i64
  %66 = getelementptr inbounds [27 x i8], [27 x i8]* %63, i64 0, i64 %65
  %67 = load i8, i8* %66, align 1
  %68 = sext i8 %67 to i32
  %69 = sub nsw i32 %68, 65
  %70 = sext i32 %69 to i64
  %71 = getelementptr inbounds [26 x i32], [26 x i32]* %5, i64 0, i64 %70
  %72 = load i32, i32* %71, align 4
  %73 = add nsw i32 %72, 1
  store i32 %73, i32* %71, align 4
  br label %74

74:                                               ; preds = %58
  %75 = load i32, i32* %4, align 4
  %76 = add nsw i32 %75, 1
  store i32 %76, i32* %4, align 4
  br label %53

77:                                               ; preds = %53
  br label %78

78:                                               ; preds = %77
  %79 = load i32, i32* %3, align 4
  %80 = add nsw i32 %79, 1
  store i32 %80, i32* %3, align 4
  br label %27

81:                                               ; preds = %27
  store i32 0, i32* %4, align 4
  br label %82

82:                                               ; preds = %99, %81
  %83 = load i32, i32* %4, align 4
  %84 = icmp sle i32 %83, 25
  br i1 %84, label %85, label %102

85:                                               ; preds = %82
  %86 = load i32, i32* %4, align 4
  %87 = sext i32 %86 to i64
  %88 = getelementptr inbounds [26 x i32], [26 x i32]* %5, i64 0, i64 %87
  %89 = load i32, i32* %88, align 4
  %90 = load i32, i32* %6, align 4
  %91 = icmp sgt i32 %89, %90
  br i1 %91, label %92, label %98

92:                                               ; preds = %85
  %93 = load i32, i32* %4, align 4
  %94 = sext i32 %93 to i64
  %95 = getelementptr inbounds [26 x i32], [26 x i32]* %5, i64 0, i64 %94
  %96 = load i32, i32* %95, align 4
  store i32 %96, i32* %6, align 4
  %97 = load i32, i32* %4, align 4
  store i32 %97, i32* %7, align 4
  br label %98

98:                                               ; preds = %92, %85
  br label %99

99:                                               ; preds = %98
  %100 = load i32, i32* %4, align 4
  %101 = add nsw i32 %100, 1
  store i32 %101, i32* %4, align 4
  br label %82

102:                                              ; preds = %82
  %103 = load i32, i32* %7, align 4
  %104 = add nsw i32 %103, 65
  %105 = load i32, i32* %6, align 4
  %106 = call i32 (i8*, ...) @printf(i8* getelementptr inbounds ([7 x i8], [7 x i8]* @.str.2, i64 0, i64 0), i32 %104, i32 %105)
  store i32 0, i32* %3, align 4
  br label %107

107:                                              ; preds = %153, %102
  %108 = load i32, i32* %3, align 4
  %109 = load i32, i32* %2, align 4
  %110 = sub nsw i32 %109, 1
  %111 = icmp sle i32 %108, %110
  br i1 %111, label %112, label %156

112:                                              ; preds = %107
  %113 = load %struct.data*, %struct.data** %9, align 8
  %114 = load i32, i32* %3, align 4
  %115 = sext i32 %114 to i64
  %116 = getelementptr inbounds %struct.data, %struct.data* %113, i64 %115
  %117 = getelementptr inbounds %struct.data, %struct.data* %116, i32 0, i32 1
  %118 = getelementptr inbounds [27 x i8], [27 x i8]* %117, i64 0, i64 0
  %119 = call i64 @strlen(i8* %118) #5
  %120 = trunc i64 %119 to i32
  store i32 %120, i32* %8, align 4
  store i32 0, i32* %4, align 4
  br label %121

121:                                              ; preds = %149, %112
  %122 = load i32, i32* %4, align 4
  %123 = load i32, i32* %8, align 4
  %124 = sub nsw i32 %123, 1
  %125 = icmp sle i32 %122, %124
  br i1 %125, label %126, label %152

126:                                              ; preds = %121
  %127 = load %struct.data*, %struct.data** %9, align 8
  %128 = load i32, i32* %3, align 4
  %129 = sext i32 %128 to i64
  %130 = getelementptr inbounds %struct.data, %struct.data* %127, i64 %129
  %131 = getelementptr inbounds %struct.data, %struct.data* %130, i32 0, i32 1
  %132 = load i32, i32* %4, align 4
  %133 = sext i32 %132 to i64
  %134 = getelementptr inbounds [27 x i8], [27 x i8]* %131, i64 0, i64 %133
  %135 = load i8, i8* %134, align 1
  %136 = sext i8 %135 to i32
  %137 = load i32, i32* %7, align 4
  %138 = add nsw i32 %137, 65
  %139 = icmp eq i32 %136, %138
  br i1 %139, label %140, label %148

140:                                              ; preds = %126
  %141 = load %struct.data*, %struct.data** %9, align 8
  %142 = load i32, i32* %3, align 4
  %143 = sext i32 %142 to i64
  %144 = getelementptr inbounds %struct.data, %struct.data* %141, i64 %143
  %145 = getelementptr inbounds %struct.data, %struct.data* %144, i32 0, i32 0
  %146 = load i32, i32* %145, align 4
  %147 = call i32 (i8*, ...) @printf(i8* getelementptr inbounds ([4 x i8], [4 x i8]* @.str.3, i64 0, i64 0), i32 %146)
  br label %152

148:                                              ; preds = %126
  br label %149

149:                                              ; preds = %148
  %150 = load i32, i32* %4, align 4
  %151 = add nsw i32 %150, 1
  store i32 %151, i32* %4, align 4
  br label %121

152:                                              ; preds = %140, %121
  br label %153

153:                                              ; preds = %152
  %154 = load i32, i32* %3, align 4
  %155 = add nsw i32 %154, 1
  store i32 %155, i32* %3, align 4
  br label %107

156:                                              ; preds = %107
  %157 = load %struct.data*, %struct.data** %9, align 8
  %158 = bitcast %struct.data* %157 to i8*
  call void @free(i8* %158) #4
  ret i32 0
}

declare dso_local i32 @__isoc99_scanf(i8*, ...) #1

; Function Attrs: nounwind
declare dso_local noalias i8* @malloc(i64) #2

; Function Attrs: nounwind readonly
declare dso_local i64 @strlen(i8*) #3

declare dso_local i32 @printf(i8*, ...) #1

; Function Attrs: nounwind
declare dso_local void @free(i8*) #2


!llvm.module.flags = !{!0}
!llvm.ident = !{!1}

!0 = !{i32 1, !"wchar_size", i32 4}
!1 = !{!"clang version 10.0.0-4ubuntu1 "}
